target datalayout = "e-m:e-p270:32:32-p271:32:32-p272:64:64-i64:64-i128:128-f80:128-n8:16:32:64-S128"
target triple = "x86_64-pc-linux-gnu"

%struct.ggml_backend_buffer_i = type { ptr, ptr, ptr, ptr, ptr, ptr, ptr, ptr, ptr }
%struct.ggml_backend_buffer = type { %struct.ggml_backend_buffer_i, ptr, ptr, i64, i32 }
%struct.ggml_tensor = type { i32, ptr, [4 x i64], [4 x i64], i32, [16 x i32], i32, [10 x ptr], ptr, i64, ptr, [64 x i8], ptr, [8 x i8] }
%struct.ggml_backend = type { ptr, %struct.ggml_backend_i, ptr, ptr }
%struct.ggml_backend_i = type { ptr, ptr, ptr, ptr, ptr, ptr, ptr, ptr, ptr, ptr, ptr, ptr, ptr }
%struct.ggml_backend_device = type { %struct.ggml_backend_device_i, ptr, ptr }
%struct.ggml_backend_device_i = type { ptr, ptr, ptr, ptr, ptr, ptr, ptr, ptr, ptr, ptr, ptr, ptr, ptr, ptr, ptr }
%struct.ggml_hash_set = type { i64, ptr, ptr }
%struct.ggml_backend_sched = type { i8, i8, i32, [16 x ptr], [16 x ptr], ptr, %struct.ggml_hash_set, ptr, ptr, ptr, ptr, ptr, ptr, %struct.ggml_cgraph, ptr, i32, i32, i32, i32, [16 x [4 x ptr]], [10 x ptr], i32, ptr, ptr, ptr, ptr, i64, i32 }
%struct.ggml_cgraph = type { i32, i32, i32, ptr, ptr, ptr, ptr, %struct.ggml_hash_set, i32 }

@.str.57 = private unnamed_addr constant [118 x i8] c"generated/home/dtcxzyw/WorkSpace/Projects/compilers/llvm-opt-benchmark/bench/llama.cpp/llama.cpp/ggml/src/ggml-impl.h\00", align 1
@.str.58 = private unnamed_addr constant [12 x i8] c"fatal error\00", align 1

; Function Attrs: mustprogress uwtable
define zeroext i1 @ggml_backend_dev_supports_buft(ptr noundef %0, ptr noundef %1) #0 {
  %3 = alloca ptr, align 8
  %4 = alloca ptr, align 8
  store ptr %0, ptr %3, align 8, !tbaa !65
  store ptr %1, ptr %4, align 8, !tbaa !3
  %5 = load ptr, ptr %3, align 8, !tbaa !65
  %6 = getelementptr inbounds nuw %struct.ggml_backend_device, ptr %5, i32 0, i32 0
  %7 = getelementptr inbounds nuw %struct.ggml_backend_device_i, ptr %6, i32 0, i32 10
  %8 = load ptr, ptr %7, align 8, !tbaa !86
  %9 = load ptr, ptr %3, align 8, !tbaa !65
  %10 = load ptr, ptr %4, align 8, !tbaa !3
  %11 = call noundef zeroext i1 %8(ptr noundef %9, ptr noundef %10)
  ret i1 %11
}

; Function Attrs: inlinehint mustprogress nounwind uwtable
define internal void @_ZL15ggml_bitset_setPjm(ptr noundef %0, i64 noundef %1) #14 {
  %3 = alloca ptr, align 8
  %4 = alloca i64, align 8
  store ptr %0, ptr %3, align 8, !tbaa !148
  store i64 %1, ptr %4, align 8, !tbaa !12
  %5 = load i64, ptr %4, align 8, !tbaa !12
  %6 = and i64 %5, 31
  %7 = trunc i64 %6 to i32
  %8 = shl i32 1, %7
  %9 = load ptr, ptr %3, align 8, !tbaa !148
  %10 = load i64, ptr %4, align 8, !tbaa !12
  %11 = lshr i64 %10, 5
  %12 = getelementptr inbounds nuw i32, ptr %9, i64 %11
  %13 = load i32, ptr %12, align 4, !tbaa !89
  %14 = or i32 %13, %8
  store i32 %14, ptr %12, align 4, !tbaa !89
  ret void
}

; Function Attrs: inlinehint mustprogress nounwind uwtable
define internal noundef zeroext i1 @_ZL15ggml_bitset_getPKjm(ptr noundef %0, i64 noundef %1) #14 {
  %3 = alloca ptr, align 8
  %4 = alloca i64, align 8
  store ptr %0, ptr %3, align 8, !tbaa !148
  store i64 %1, ptr %4, align 8, !tbaa !12
  %5 = load ptr, ptr %3, align 8, !tbaa !148
  %6 = load i64, ptr %4, align 8, !tbaa !12
  %7 = lshr i64 %6, 5
  %8 = getelementptr inbounds nuw i32, ptr %5, i64 %7
  %9 = load i32, ptr %8, align 4, !tbaa !89
  %10 = load i64, ptr %4, align 8, !tbaa !12
  %11 = and i64 %10, 31
  %12 = trunc i64 %11 to i32
  %13 = shl i32 1, %12
  %14 = and i32 %9, %13
  %15 = icmp ne i32 %14, 0
  %16 = xor i1 %15, true
  %17 = xor i1 %16, true
  ret i1 %17
}

; Function Attrs: inlinehint mustprogress nounwind uwtable
define internal noundef i64 @_ZL9ggml_hashPK11ggml_tensor(ptr noundef %0) #14 {
  %2 = alloca ptr, align 8
  store ptr %0, ptr %2, align 8, !tbaa !28
  %3 = load ptr, ptr %2, align 8, !tbaa !28
  %4 = ptrtoint ptr %3 to i64
  %5 = lshr i64 %4, 4
  ret i64 %5
}

; Function Attrs: mustprogress uwtable
define zeroext i1 @ggml_backend_supports_buft(ptr noundef %0, ptr noundef %1) #0 {
  %3 = alloca ptr, align 8
  %4 = alloca ptr, align 8
  store ptr %0, ptr %3, align 8, !tbaa !56
  store ptr %1, ptr %4, align 8, !tbaa !3
  %5 = load ptr, ptr %3, align 8, !tbaa !56
  %6 = getelementptr inbounds nuw %struct.ggml_backend, ptr %5, i32 0, i32 2
  %7 = load ptr, ptr %6, align 8, !tbaa !64
  %8 = load ptr, ptr %4, align 8, !tbaa !3
  %9 = call zeroext i1 @ggml_backend_dev_supports_buft(ptr noundef %7, ptr noundef %8)
  ret i1 %9
}

; Function Attrs: mustprogress uwtable
define internal noundef i64 @_ZL24ggml_hash_find_or_insertP13ggml_hash_setP11ggml_tensor(ptr noundef %0, ptr noundef %1) #0 {
  %3 = alloca i64, align 8
  %4 = alloca ptr, align 8
  %5 = alloca ptr, align 8
  %6 = alloca i64, align 8
  %7 = alloca i64, align 8
  %8 = alloca i32, align 4
  store ptr %0, ptr %4, align 8, !tbaa !236
  store ptr %1, ptr %5, align 8, !tbaa !28
  call void @llvm.lifetime.start.p0(i64 8, ptr %6) #15
  %9 = load ptr, ptr %5, align 8, !tbaa !28
  %10 = call noundef i64 @_ZL9ggml_hashPK11ggml_tensor(ptr noundef %9)
  %11 = load ptr, ptr %4, align 8, !tbaa !236
  %12 = getelementptr inbounds nuw %struct.ggml_hash_set, ptr %11, i32 0, i32 0
  %13 = load i64, ptr %12, align 8, !tbaa !238
  %14 = urem i64 %10, %13
  store i64 %14, ptr %6, align 8, !tbaa !12
  call void @llvm.lifetime.start.p0(i64 8, ptr %7) #15
  %15 = load i64, ptr %6, align 8, !tbaa !12
  store i64 %15, ptr %7, align 8, !tbaa !12
  br label %16

16:                                               ; preds = %52, %2
  %17 = load ptr, ptr %4, align 8, !tbaa !236
  %18 = getelementptr inbounds nuw %struct.ggml_hash_set, ptr %17, i32 0, i32 1
  %19 = load ptr, ptr %18, align 8, !tbaa !239
  %20 = load i64, ptr %7, align 8, !tbaa !12
  %21 = call noundef zeroext i1 @_ZL15ggml_bitset_getPKjm(ptr noundef %19, i64 noundef %20)
  br i1 %21, label %34, label %22

22:                                               ; preds = %16
  %23 = load ptr, ptr %4, align 8, !tbaa !236
  %24 = getelementptr inbounds nuw %struct.ggml_hash_set, ptr %23, i32 0, i32 1
  %25 = load ptr, ptr %24, align 8, !tbaa !239
  %26 = load i64, ptr %7, align 8, !tbaa !12
  call void @_ZL15ggml_bitset_setPjm(ptr noundef %25, i64 noundef %26)
  %27 = load ptr, ptr %5, align 8, !tbaa !28
  %28 = load ptr, ptr %4, align 8, !tbaa !236
  %29 = getelementptr inbounds nuw %struct.ggml_hash_set, ptr %28, i32 0, i32 2
  %30 = load ptr, ptr %29, align 8, !tbaa !240
  %31 = load i64, ptr %7, align 8, !tbaa !12
  %32 = getelementptr inbounds nuw ptr, ptr %30, i64 %31
  store ptr %27, ptr %32, align 8, !tbaa !28
  %33 = load i64, ptr %7, align 8, !tbaa !12
  store i64 %33, ptr %3, align 8
  store i32 1, ptr %8, align 4
  br label %57

34:                                               ; preds = %16
  %35 = load ptr, ptr %4, align 8, !tbaa !236
  %36 = getelementptr inbounds nuw %struct.ggml_hash_set, ptr %35, i32 0, i32 2
  %37 = load ptr, ptr %36, align 8, !tbaa !240
  %38 = load i64, ptr %7, align 8, !tbaa !12
  %39 = getelementptr inbounds nuw ptr, ptr %37, i64 %38
  %40 = load ptr, ptr %39, align 8, !tbaa !28
  %41 = load ptr, ptr %5, align 8, !tbaa !28
  %42 = icmp eq ptr %40, %41
  br i1 %42, label %43, label %45

43:                                               ; preds = %34
  %44 = load i64, ptr %7, align 8, !tbaa !12
  store i64 %44, ptr %3, align 8
  store i32 1, ptr %8, align 4
  br label %57

45:                                               ; preds = %34
  %46 = load i64, ptr %7, align 8, !tbaa !12
  %47 = add i64 %46, 1
  %48 = load ptr, ptr %4, align 8, !tbaa !236
  %49 = getelementptr inbounds nuw %struct.ggml_hash_set, ptr %48, i32 0, i32 0
  %50 = load i64, ptr %49, align 8, !tbaa !238
  %51 = urem i64 %47, %50
  store i64 %51, ptr %7, align 8, !tbaa !12
  br label %52

52:                                               ; preds = %45
  %53 = load i64, ptr %7, align 8, !tbaa !12
  %54 = load i64, ptr %6, align 8, !tbaa !12
  %55 = icmp ne i64 %53, %54
  br i1 %55, label %16, label %56, !llvm.loop !241

56:                                               ; preds = %52
  call void (ptr, i32, ptr, ...) @ggml_abort(ptr noundef @.str.57, i32 noundef 276, ptr noundef @.str.58) #18
  unreachable

57:                                               ; preds = %43, %22
  call void @llvm.lifetime.end.p0(i64 8, ptr %7) #15
  call void @llvm.lifetime.end.p0(i64 8, ptr %6) #15
  %58 = load i64, ptr %3, align 8
  ret i64 %58
}

; Function Attrs: mustprogress uwtable
define internal noundef zeroext i1 @_ZL35ggml_backend_sched_buffer_supportedP18ggml_backend_schedP11ggml_tensori(ptr noundef %0, ptr noundef %1, i32 noundef %2) #0 {
  %4 = alloca ptr, align 8
  %5 = alloca ptr, align 8
  %6 = alloca i32, align 4
  %7 = alloca ptr, align 8
  %8 = alloca ptr, align 8
  %9 = alloca i32, align 4
  store ptr %0, ptr %4, align 8, !tbaa !131
  store ptr %1, ptr %5, align 8, !tbaa !28
  store i32 %2, ptr %6, align 4, !tbaa !89
  call void @llvm.lifetime.start.p0(i64 8, ptr %7) #15
  %10 = load ptr, ptr %5, align 8, !tbaa !28
  %11 = getelementptr inbounds nuw %struct.ggml_tensor, ptr %10, i32 0, i32 8
  %12 = load ptr, ptr %11, align 8, !tbaa !49
  %13 = icmp ne ptr %12, null
  br i1 %13, label %14, label %20

14:                                               ; preds = %3
  %15 = load ptr, ptr %5, align 8, !tbaa !28
  %16 = getelementptr inbounds nuw %struct.ggml_tensor, ptr %15, i32 0, i32 8
  %17 = load ptr, ptr %16, align 8, !tbaa !49
  %18 = getelementptr inbounds nuw %struct.ggml_tensor, ptr %17, i32 0, i32 1
  %19 = load ptr, ptr %18, align 8, !tbaa !54
  br label %24

20:                                               ; preds = %3
  %21 = load ptr, ptr %5, align 8, !tbaa !28
  %22 = getelementptr inbounds nuw %struct.ggml_tensor, ptr %21, i32 0, i32 1
  %23 = load ptr, ptr %22, align 8, !tbaa !54
  br label %24

24:                                               ; preds = %20, %14
  %25 = phi ptr [ %19, %14 ], [ %23, %20 ]
  store ptr %25, ptr %7, align 8, !tbaa !24
  call void @llvm.lifetime.start.p0(i64 8, ptr %8) #15
  store ptr null, ptr %8, align 8, !tbaa !3
  %26 = load ptr, ptr %7, align 8, !tbaa !24
  %27 = icmp ne ptr %26, null
  br i1 %27, label %28, label %32

28:                                               ; preds = %24
  %29 = load ptr, ptr %7, align 8, !tbaa !24
  %30 = getelementptr inbounds nuw %struct.ggml_backend_buffer, ptr %29, i32 0, i32 1
  %31 = load ptr, ptr %30, align 8, !tbaa !17
  store ptr %31, ptr %8, align 8, !tbaa !3
  br label %72

32:                                               ; preds = %24
  call void @llvm.lifetime.start.p0(i64 4, ptr %9) #15
  %33 = load ptr, ptr %4, align 8, !tbaa !131
  %34 = getelementptr inbounds nuw %struct.ggml_backend_sched, ptr %33, i32 0, i32 7
  %35 = load ptr, ptr %34, align 8, !tbaa !151
  %36 = load ptr, ptr %4, align 8, !tbaa !131
  %37 = getelementptr inbounds nuw %struct.ggml_backend_sched, ptr %36, i32 0, i32 6
  %38 = load ptr, ptr %5, align 8, !tbaa !28
  %39 = call noundef i64 @_ZL24ggml_hash_find_or_insertP13ggml_hash_setP11ggml_tensor(ptr noundef %37, ptr noundef %38)
  %40 = getelementptr inbounds nuw i32, ptr %35, i64 %39
  %41 = load i32, ptr %40, align 4, !tbaa !89
  store i32 %41, ptr %9, align 4, !tbaa !89
  %42 = load i32, ptr %9, align 4, !tbaa !89
  %43 = icmp eq i32 %42, -1
  br i1 %43, label %44, label %61

44:                                               ; preds = %32
  %45 = load ptr, ptr %5, align 8, !tbaa !28
  %46 = getelementptr inbounds nuw %struct.ggml_tensor, ptr %45, i32 0, i32 8
  %47 = load ptr, ptr %46, align 8, !tbaa !49
  %48 = icmp ne ptr %47, null
  br i1 %48, label %49, label %61

49:                                               ; preds = %44
  %50 = load ptr, ptr %4, align 8, !tbaa !131
  %51 = getelementptr inbounds nuw %struct.ggml_backend_sched, ptr %50, i32 0, i32 7
  %52 = load ptr, ptr %51, align 8, !tbaa !151
  %53 = load ptr, ptr %4, align 8, !tbaa !131
  %54 = getelementptr inbounds nuw %struct.ggml_backend_sched, ptr %53, i32 0, i32 6
  %55 = load ptr, ptr %5, align 8, !tbaa !28
  %56 = getelementptr inbounds nuw %struct.ggml_tensor, ptr %55, i32 0, i32 8
  %57 = load ptr, ptr %56, align 8, !tbaa !49
  %58 = call noundef i64 @_ZL24ggml_hash_find_or_insertP13ggml_hash_setP11ggml_tensor(ptr noundef %54, ptr noundef %57)
  %59 = getelementptr inbounds nuw i32, ptr %52, i64 %58
  %60 = load i32, ptr %59, align 4, !tbaa !89
  store i32 %60, ptr %9, align 4, !tbaa !89
  br label %61

61:                                               ; preds = %49, %44, %32
  %62 = load i32, ptr %9, align 4, !tbaa !89
  %63 = icmp ne i32 %62, -1
  br i1 %63, label %64, label %71

64:                                               ; preds = %61
  %65 = load ptr, ptr %4, align 8, !tbaa !131
  %66 = getelementptr inbounds nuw %struct.ggml_backend_sched, ptr %65, i32 0, i32 4
  %67 = load i32, ptr %9, align 4, !tbaa !89
  %68 = sext i32 %67 to i64
  %69 = getelementptr inbounds [16 x ptr], ptr %66, i64 0, i64 %68
  %70 = load ptr, ptr %69, align 8, !tbaa !3
  store ptr %70, ptr %8, align 8, !tbaa !3
  br label %71

71:                                               ; preds = %64, %61
  call void @llvm.lifetime.end.p0(i64 4, ptr %9) #15
  br label %72

72:                                               ; preds = %71, %28
  %73 = load ptr, ptr %8, align 8, !tbaa !3
  %74 = icmp ne ptr %73, null
  br i1 %74, label %75, label %84

75:                                               ; preds = %72
  %76 = load ptr, ptr %4, align 8, !tbaa !131
  %77 = getelementptr inbounds nuw %struct.ggml_backend_sched, ptr %76, i32 0, i32 3
  %78 = load i32, ptr %6, align 4, !tbaa !89
  %79 = sext i32 %78 to i64
  %80 = getelementptr inbounds [16 x ptr], ptr %77, i64 0, i64 %79
  %81 = load ptr, ptr %80, align 8, !tbaa !56
  %82 = load ptr, ptr %8, align 8, !tbaa !3
  %83 = call zeroext i1 @ggml_backend_supports_buft(ptr noundef %81, ptr noundef %82)
  br label %84

84:                                               ; preds = %75, %72
  %85 = phi i1 [ false, %72 ], [ %83, %75 ]
  call void @llvm.lifetime.end.p0(i64 8, ptr %8) #15
  call void @llvm.lifetime.end.p0(i64 8, ptr %7) #15
  ret i1 %85
}