; Function Attrs: mustprogress uwtable
define internal fastcc noundef zeroext i1 @_ZL35ggml_backend_sched_buffer_supportedP18ggml_backend_schedP11ggml_tensori(ptr noundef readonly captures(none) %0, ptr noundef nonnull %1, i32 noundef %2) unnamed_addr #0 {
  %4 = getelementptr inbounds nuw i8, ptr %1, i64 232
  %5 = load ptr, ptr %4, align 8, !tbaa !41
  %.not = icmp eq ptr %5, null
  %. = select i1 %.not, ptr %1, ptr %5
  %.in = getelementptr inbounds nuw i8, ptr %., i64 8
  %6 = load ptr, ptr %.in, align 8, !tbaa !47
  %.not25 = icmp eq ptr %6, null
  br i1 %.not25, label %9, label %7

7:                                                ; preds = %3
  %8 = getelementptr inbounds nuw i8, ptr %6, i64 72
  br label %79

9:                                                ; preds = %3
  %10 = getelementptr inbounds nuw i8, ptr %0, i64 296
  %11 = load ptr, ptr %10, align 8, !tbaa !121
  %12 = getelementptr inbounds nuw i8, ptr %0, i64 272
  %13 = ptrtoint ptr %1 to i64
  %14 = lshr i64 %13, 4
  %15 = load i64, ptr %12, align 8, !tbaa !155
  %16 = urem i64 %14, %15
  %17 = getelementptr inbounds nuw i8, ptr %0, i64 280
  %18 = load ptr, ptr %17, align 8, !tbaa !156
  %19 = getelementptr inbounds nuw i8, ptr %0, i64 288
  br label %20

20:                                               ; preds = %38, %9
  %.0.i = phi i64 [ %16, %9 ], [ %41, %38 ]
  %.0.fr.i = freeze i64 %.0.i
  %21 = lshr i64 %.0.fr.i, 5
  %22 = getelementptr inbounds nuw i32, ptr %18, i64 %21
  %23 = load i32, ptr %22, align 4, !tbaa !157
  %24 = trunc i64 %.0.fr.i to i32
  %25 = and i32 %24, 31
  %26 = shl nuw i32 1, %25
  %27 = and i32 %26, %23
  %.not21.i = icmp eq i32 %27, 0
  br i1 %.not21.i, label %28, label %33

28:                                               ; preds = %20
  %29 = getelementptr inbounds nuw i32, ptr %18, i64 %21
  %30 = or i32 %26, %23
  store i32 %30, ptr %29, align 4, !tbaa !157
  %31 = load ptr, ptr %19, align 8, !tbaa !158
  %32 = getelementptr inbounds nuw ptr, ptr %31, i64 %.0.fr.i
  store ptr %1, ptr %32, align 8, !tbaa !154
  br label %_ZL24ggml_hash_find_or_insertP13ggml_hash_setP11ggml_tensor.exit

33:                                               ; preds = %20
  %34 = load ptr, ptr %19, align 8, !tbaa !158
  %35 = getelementptr inbounds nuw ptr, ptr %34, i64 %.0.fr.i
  %36 = load ptr, ptr %35, align 8, !tbaa !154
  %37 = icmp eq ptr %36, %1
  br i1 %37, label %_ZL24ggml_hash_find_or_insertP13ggml_hash_setP11ggml_tensor.exit, label %38

38:                                               ; preds = %33
  %39 = add i64 %.0.fr.i, 1
  %40 = icmp eq i64 %39, %15
  %41 = select i1 %40, i64 0, i64 %39
  %.not.i = icmp eq i64 %41, %16
  br i1 %.not.i, label %42, label %20, !llvm.loop !159

42:                                               ; preds = %38
  tail call void (ptr, i32, ptr, ...) @ggml_abort(ptr noundef nonnull @.str.57, i32 noundef 276, ptr noundef nonnull @.str.58) #24
  unreachable

_ZL24ggml_hash_find_or_insertP13ggml_hash_setP11ggml_tensor.exit: ; preds = %33, %28
  %43 = phi ptr [ %31, %28 ], [ %34, %33 ]
  %44 = getelementptr inbounds nuw i32, ptr %11, i64 %.0.fr.i
  %45 = load i32, ptr %44, align 4, !tbaa !157
  %46 = icmp eq i32 %45, -1
  br i1 %46, label %47, label %.thread36

47:                                               ; preds = %_ZL24ggml_hash_find_or_insertP13ggml_hash_setP11ggml_tensor.exit
  %48 = load ptr, ptr %4, align 8, !tbaa !41
  %.not26 = icmp eq ptr %48, null
  br i1 %.not26, label %.thread40, label %49

49:                                               ; preds = %47
  %50 = ptrtoint ptr %48 to i64
  %51 = lshr i64 %50, 4
  %52 = urem i64 %51, %15
  br label %53

53:                                               ; preds = %69, %49
  %.0.i29 = phi i64 [ %52, %49 ], [ %72, %69 ]
  %.0.fr.i30 = freeze i64 %.0.i29
  %54 = lshr i64 %.0.fr.i30, 5
  %55 = getelementptr inbounds nuw i32, ptr %18, i64 %54
  %56 = load i32, ptr %55, align 4, !tbaa !157
  %57 = trunc i64 %.0.fr.i30 to i32
  %58 = and i32 %57, 31
  %59 = shl nuw i32 1, %58
  %60 = and i32 %59, %56
  %.not21.i31 = icmp eq i32 %60, 0
  br i1 %.not21.i31, label %61, label %65

61:                                               ; preds = %53
  %62 = getelementptr inbounds nuw i32, ptr %18, i64 %54
  %63 = or i32 %59, %56
  store i32 %63, ptr %62, align 4, !tbaa !157
  %64 = getelementptr inbounds nuw ptr, ptr %43, i64 %.0.fr.i30
  store ptr %48, ptr %64, align 8, !tbaa !154
  br label %.loopexit

65:                                               ; preds = %53
  %66 = getelementptr inbounds nuw ptr, ptr %43, i64 %.0.fr.i30
  %67 = load ptr, ptr %66, align 8, !tbaa !154
  %68 = icmp eq ptr %67, %48
  br i1 %68, label %.loopexit, label %69

69:                                               ; preds = %65
  %70 = add i64 %.0.fr.i30, 1
  %71 = icmp eq i64 %70, %15
  %72 = select i1 %71, i64 0, i64 %70
  %.not.i32 = icmp eq i64 %72, %52
  br i1 %.not.i32, label %73, label %53, !llvm.loop !159

73:                                               ; preds = %69
  tail call void (ptr, i32, ptr, ...) @ggml_abort(ptr noundef nonnull @.str.57, i32 noundef 276, ptr noundef nonnull @.str.58) #24
  unreachable

.loopexit:                                        ; preds = %65, %61
  %74 = getelementptr inbounds nuw i32, ptr %11, i64 %.0.fr.i30
  %75 = load i32, ptr %74, align 4, !tbaa !157
  %.not27 = icmp eq i32 %75, -1
  br i1 %.not27, label %.thread40, label %.thread36

.thread36:                                        ; preds = %_ZL24ggml_hash_find_or_insertP13ggml_hash_setP11ggml_tensor.exit, %.loopexit
  %.039 = phi i32 [ %75, %.loopexit ], [ %45, %_ZL24ggml_hash_find_or_insertP13ggml_hash_setP11ggml_tensor.exit ]
  %76 = getelementptr inbounds nuw i8, ptr %0, i64 136
  %77 = sext i32 %.039 to i64
  %78 = getelementptr inbounds [16 x ptr], ptr %76, i64 0, i64 %77
  br label %79

79:                                               ; preds = %.thread36, %7
  %.019.in = phi ptr [ %8, %7 ], [ %78, %.thread36 ]
  %.019 = load ptr, ptr %.019.in, align 8, !tbaa !136
  %.not28 = icmp eq ptr %.019, null
  br i1 %.not28, label %.thread40, label %80

80:                                               ; preds = %79
  %81 = getelementptr inbounds nuw i8, ptr %0, i64 8
  %82 = sext i32 %2 to i64
  %83 = getelementptr inbounds [16 x ptr], ptr %81, i64 0, i64 %82
  %84 = load ptr, ptr %83, align 8, !tbaa !102
  %85 = getelementptr inbounds nuw i8, ptr %84, i64 112
  %86 = load ptr, ptr %85, align 8, !tbaa !55
  %87 = getelementptr inbounds nuw i8, ptr %86, i64 80
  %88 = load ptr, ptr %87, align 8, !tbaa !72
  %89 = tail call noundef zeroext i1 %88(ptr noundef %86, ptr noundef nonnull %.019)
  br label %.thread40

.thread40:                                        ; preds = %47, %.loopexit, %80, %79
  %90 = phi i1 [ false, %79 ], [ %89, %80 ], [ false, %.loopexit ], [ false, %47 ]
  ret i1 %90
}